(dp0
S'tournament'
p1
(F870.1
F0.6
tp2
sS'data'
p3
(lp4
(lp5
I0
aI1
aI2
aI3
aI4
aI5
aI6
aI7
aI8
aI9
aI10
aI11
aI12
aI13
aI14
aa(lp6
F-392.55
aF-248.71
aF-117.31
aF-17.61
aF199.5
aF368.22
aF519.86
aF480.67
aF417.01
aF378.23
aF367.17
aF479.82
aF454.77
aF456.91
aF481.78
aa(lp7
F0.0
aF0.02
aF0.04
aF0.07
aF0.15
aF0.28
aF0.37
aF0.36
aF0.3
aF0.27
aF0.25
aF0.37
aF0.33
aF0.35
aF0.36
aasS'genome'
p8
S'100101010110100001111110101100000100111111010000001000001000100111010100110101011010011111011001001011000101001001111011100110011010001001001011111101110100000001110111010010010010011011010011110110001101010001111111011000011110100111110010001000001101'
p9
s.