(dp0
S'tournament'
p1
(F983.0
F0.7
tp2
sS'data'
p3
(lp4
(lp5
I0
aI1
aI2
aI3
aI4
aI5
aI6
aI7
aI8
aI9
aI10
aI11
aI12
aI13
aI14
aa(lp6
F-430.13
aF-327.25
aF-300.37
aF-225.16
aF-225.79
aF-204.28
aF-116.91
aF22.55
aF-21.91
aF110.63
aF270.23
aF107.38
aF215.53
aF333.07
aF398.52
aa(lp7
F0.0
aF0.01
aF0.0
aF0.03
aF0.01
aF0.03
aF0.04
aF0.1
aF0.07
aF0.14
aF0.21
aF0.11
aF0.18
aF0.23
aF0.29
aasS'genome'
p8
S'110011110111010111010100001010000101111101011111101111011001010001010001110100001001001100011000011000100100110011000010010100110101101111001101111110100110010000100010110001011111001011001101101010011000100110100001000100011000110100100011100110001110'
p9
s.