(dp0
S'tournament'
p1
(F825.1
F0.6
tp2
sS'data'
p3
(lp4
(lp5
I0
aI1
aI2
aI3
aI4
aI5
aI6
aI7
aI8
aI9
aI10
aI11
aI12
aI13
aI14
aa(lp6
F-424.78
aF-329.91
aF-281.29
aF-206.74
aF-134.51
aF-34.42
aF112.19
aF263.23
aF390.38
aF464.82
aF594.88
aF620.48
aF483.62
aF542.38
aF581.55
aa(lp7
F0.0
aF0.0
aF0.02
aF0.04
aF0.02
aF0.1
aF0.16
aF0.22
aF0.26
aF0.33
aF0.41
aF0.44
aF0.32
aF0.36
aF0.41
aasS'genome'
p8
S'000101010001001010001011111000001010001110111000111011111011001010001101101000000110111111011001000001110000110001000101010110101000111101100100111110000001000010110100100000000010010001010001111011111101100110000110011110101010011000010000001110110001'
p9
s.