(dp0
S'tournament'
p1
(F335.9
F0.1
tp2
sS'data'
p3
(lp4
(lp5
I0
aI1
aI2
aI3
aI4
aI5
aI6
aI7
aI8
aI9
aI10
aI11
aI12
aI13
aI14
aa(lp6
F-432.22
aF-192.3
aF-42.92
aF117.5
aF23.5
aF153.11
aF49.86
aF115.69
aF36.13
aF71.95
aF133.13
aF73.63
aF127.73
aF63.25
aF81.36
aa(lp7
F0.0
aF0.01
aF0.02
aF0.04
aF0.01
aF0.07
aF0.02
aF0.03
aF0.01
aF0.03
aF0.03
aF0.05
aF0.06
aF0.0
aF0.01
aasS'genome'
p8
S'110000010111011000010010111011100101001110010010101001010110001001111011101101010011100000001010010011111011000000000010100101001000001100000111000011010001010010010111000001011100011000111110011111000011000001100101100000110101011000111110010010111110'
p9
s.