(dp0
S'tournament'
p1
(F896.7
F0.6
tp2
sS'data'
p3
(lp4
(lp5
I0
aI1
aI2
aI3
aI4
aI5
aI6
aI7
aI8
aI9
aI10
aI11
aI12
aI13
aI14
aa(lp6
F-391.04
aF-328.43
aF-294.19
aF-271.88
aF-240.65
aF-155.65
aF-92.57
aF-86.35
aF-23.13
aF57.2
aF77.15
aF141.9
aF176.67
aF166.97
aF375.11
aa(lp7
F0.0
aF0.0
aF0.01
aF0.01
aF0.01
aF0.02
aF0.04
aF0.02
aF0.04
aF0.05
aF0.06
aF0.1
aF0.11
aF0.08
aF0.21
aasS'genome'
p8
S'101101100100001010010011011111111101111101111001110110111110001010110111010010010011011000100100001101000101110101010111101011000000111000100110111111001100000000000101001001000110011100101110000001001111000101100101000000101000100101011001000000011001'
p9
s.