(dp0
S'tournament'
p1
(F1087.8
F0.7
tp2
sS'data'
p3
(lp4
(lp5
I0
aI1
aI2
aI3
aI4
aI5
aI6
aI7
aI8
aI9
aI10
aI11
aI12
aI13
aI14
aa(lp6
F-400.77
aF-323.18
aF-300.72
aF-211.3
aF-194.3
aF-131.38
aF-30.33
aF50.95
aF118.9
aF153.95
aF229.75
aF230.7
aF194.02
aF405.37
aF359.9
aa(lp7
F0.0
aF0.0
aF0.0
aF0.0
aF0.01
aF0.02
aF0.05
aF0.05
aF0.09
aF0.12
aF0.14
aF0.15
aF0.14
aF0.26
aF0.21
aasS'genome'
p8
S'000000111000000000010100111011011110001101111100111001110010100001011100010111011101100101101100010100110100000101110100101011111011000110001100111100000010011010001101110000110010011001110101111100101101111111010111010011111111000000000110101101000011'
p9
s.