(dp0
S'tournament'
p1
(F974.5
F0.7
tp2
sS'data'
p3
(lp4
(lp5
I0
aI1
aI2
aI3
aI4
aI5
aI6
aI7
aI8
aI9
aI10
aI11
aI12
aI13
aI14
aa(lp6
F-416.23
aF-253.23
aF-186.68
aF41.6
aF140.8
aF319.31
aF428.79
aF429.29
aF521.14
aF528.49
aF370.49
aF649.26
aF363.63
aF584.81
aF452.62
aa(lp7
F0.0
aF0.01
aF0.02
aF0.09
aF0.13
aF0.23
aF0.34
aF0.31
aF0.41
aF0.39
aF0.26
aF0.44
aF0.24
aF0.41
aF0.31
aasS'genome'
p8
S'010000010101001100100011111111111100111110111111011100000110001010000001011101011011000011111111101111110110001010000101011011111010100000101010111111011000100000001100101000001101001110001111101100001011101010000111001010110101110101010001111110001100'
p9
s.