(dp0
S'tournament'
p1
(F47.9
F0.0
tp2
sS'data'
p3
(lp4
(lp5
I0
aI1
aI2
aI3
aI4
aI5
aI6
aI7
aI8
aI9
aI10
aI11
aI12
aI13
aI14
aa(lp6
F-396.93
aF-398.58
aF-425.98
aF-400.36
aF-426.69
aF-402.8
aF-397.92
aF-381.52
aF-377.85
aF-375.24
aF-363.56
aF-405.39
aF-393.55
aF-414.06
aF-432.42
aa(lp7
F0.0
aF0.01
aF0.0
aF0.01
aF0.0
aF0.0
aF0.0
aF0.01
aF0.01
aF0.01
aF0.01
aF0.0
aF0.0
aF0.0
aF0.0
aasS'genome'
p8
S'000001000100001000110110001000110101111100011110011111001101011001100011001010011010001101010100000111100000011000111001000100111110010000000001001011111000101100110101101111011100101010011100101101000110010010101100100110010100000100111110111000001101'
p9
s.