(dp0
S'tournament'
p1
(F799.8
F0.6
tp2
sS'data'
p3
(lp4
(lp5
I0
aI1
aI2
aI3
aI4
aI5
aI6
aI7
aI8
aI9
aI10
aI11
aI12
aI13
aI14
aa(lp6
F-433.68
aF-346.43
aF-309.72
aF-261.04
aF-225.62
aF-144.01
aF-87.82
aF-14.74
aF110.01
aF261.68
aF276.38
aF326.26
aF255.96
aF273.82
aF391.16
aa(lp7
F0.0
aF0.0
aF0.01
aF0.02
aF0.03
aF0.06
aF0.05
aF0.07
aF0.12
aF0.2
aF0.19
aF0.25
aF0.17
aF0.21
aF0.29
aasS'genome'
p8
S'100101000100001110010100111001001101110011101001000011000100011111110010010010001000101110101001010001000101110011111001001110000010101110001000111000011011110101000101011100101001001110100110010100001010001101110010011000011010110011111000100111001111'
p9
s.