(dp0
S'tournament'
p1
(F982.0
F0.6
tp2
sS'data'
p3
(lp4
(lp5
I0
aI1
aI2
aI3
aI4
aI5
aI6
aI7
aI8
aI9
aI10
aI11
aI12
aI13
aI14
aa(lp6
F-411.74
aF-278.74
aF-175.71
aF-54.1
aF48.06
aF75.59
aF46.68
aF110.24
aF160.23
aF150.41
aF161.15
aF118.69
aF201.54
aF266.22
aF325.15
aa(lp7
F0.01
aF0.01
aF0.0
aF0.0
aF0.05
aF0.04
aF0.04
aF0.1
aF0.11
aF0.11
aF0.11
aF0.08
aF0.15
aF0.18
aF0.24
aasS'genome'
p8
S'001110000110111101110010001000101011111111100110010101110110100111110011011000111101011100010000000000000000101011011111001110011001100000111001111011111000010101010100101101101010011011011110101110110100110101010111101110111100001100011011000001011010'
p9
s.