(dp0
S'tournament'
p1
(F1131.6
F0.7
tp2
sS'data'
p3
(lp4
(lp5
I0
aI1
aI2
aI3
aI4
aI5
aI6
aI7
aI8
aI9
aI10
aI11
aI12
aI13
aI14
aa(lp6
F-419.65
aF-354.97
aF-274.01
aF-220.08
aF-89.41
aF-55.43
aF-11.87
aF52.5
aF159.62
aF262.74
aF252.74
aF372.6
aF390.59
aF460.59
aF491.8
aa(lp7
F0.01
aF0.01
aF0.0
aF0.01
aF0.02
aF0.04
aF0.04
aF0.08
aF0.14
aF0.19
aF0.22
aF0.28
aF0.26
aF0.3
aF0.32
aasS'genome'
p8
S'010111110011101001011001100001001111111101101000110000000110000111110001110000111001101101001111001110000110111001101100100001110001100000010011111111100111010111111000010101010001011110000110100010001111100100010111100111000000000101010011111110000010'
p9
s.