(dp0
S'tournament'
p1
(F789.2
F0.5
tp2
sS'data'
p3
(lp4
(lp5
I0
aI1
aI2
aI3
aI4
aI5
aI6
aI7
aI8
aI9
aI10
aI11
aI12
aI13
aI14
aa(lp6
F-428.5
aF-335.37
aF-303.4
aF-271.36
aF-197.72
aF-75.53
aF34.52
aF76.37
aF177.29
aF201.93
aF236.61
aF365.75
aF409.94
aF357.03
aF354.64
aa(lp7
F0.0
aF0.01
aF0.0
aF0.0
aF0.02
aF0.05
aF0.1
aF0.11
aF0.15
aF0.18
aF0.19
aF0.27
aF0.29
aF0.25
aF0.22
aasS'genome'
p8
S'111100100011010101110101111000100000111100110110010101001110101111110010001100010010111000000001101001000000011010111011100010110000111010001011111111110000110010000000000000110110011110001000010101011010101101000001110100011110001000011100100111101001'
p9
s.