(dp0
S'tournament'
p1
(F809.6
F0.6
tp2
sS'data'
p3
(lp4
(lp5
I0
aI1
aI2
aI3
aI4
aI5
aI6
aI7
aI8
aI9
aI10
aI11
aI12
aI13
aI14
aa(lp6
F-413.43
aF-351.12
aF-299.29
aF-207.18
aF-176.91
aF-2.08
aF92.14
aF110.56
aF133.54
aF136.85
aF152.79
aF305.81
aF291.26
aF296.68
aF233.14
aa(lp7
F0.0
aF0.01
aF0.01
aF0.04
aF0.03
aF0.08
aF0.08
aF0.08
aF0.1
aF0.11
aF0.15
aF0.2
aF0.21
aF0.23
aF0.18
aasS'genome'
p8
S'100100011111011110011001000100010111111000000111101000001001000000110011111011111111010001110100000110000011000110011001100100001000100111010011111101101010100101100001000010001110000100000110110011101000001111011011011101111111100000101001101011000000'
p9
s.