(dp0
S'tournament'
p1
(F725.1
F0.5
tp2
sS'data'
p3
(lp4
(lp5
I0
aI1
aI2
aI3
aI4
aI5
aI6
aI7
aI8
aI9
aI10
aI11
aI12
aI13
aI14
aa(lp6
F-427.98
aF-324.03
aF-265.59
aF-195.75
aF-123.34
aF-77.18
aF8.49
aF75.75
aF167.85
aF281.88
aF302.51
aF334.57
aF272.97
aF480.94
aF323.1
aa(lp7
F0.0
aF0.01
aF0.03
aF0.04
aF0.05
aF0.04
aF0.08
aF0.1
aF0.16
aF0.24
aF0.24
aF0.23
aF0.18
aF0.32
aF0.21
aasS'genome'
p8
S'100010110001110111110001100000001101111000010111111001111010111110000011101100110010101100011010000011010111110111101010010001110100000100001011111110111010001010000111101101111101010100010010001011111101001000000111011101100100110000000011110100011101'
p9
s.