(dp0
S'tournament'
p1
(F863.0
F0.6
tp2
sS'data'
p3
(lp4
(lp5
I0
aI1
aI2
aI3
aI4
aI5
aI6
aI7
aI8
aI9
aI10
aI11
aI12
aI13
aI14
aa(lp6
F-400.0
aF-351.05
aF-330.15
aF-270.33
aF-232.56
aF-233.35
aF-293.1
aF-282.96
aF-265.39
aF-248.76
aF-290.88
aF-305.49
aF-305.65
aF-256.43
aF-212.65
aa(lp7
F0.0
aF0.0
aF0.01
aF0.03
aF0.03
aF0.03
aF0.01
aF0.02
aF0.02
aF0.03
aF0.01
aF0.01
aF0.01
aF0.03
aF0.07
aasS'genome'
p8
S'110010010100110100100100101111000100111001010110010100110101000101110110100100101011110100000111111111010100000010111000001110101001101010010010111011000110110101111101100111101101100111010101110001010010110011010000100111101010010010111101000010001111'
p9
s.